Certificate:
    Data:
        Version: 3 (0x2)
        Serial Number: 5 (0x5)
    Signature Algorithm: sha1WithRSAEncryption
        Issuer: CN=Electrosense Certificate Authority, ST=BE, C=CH/emailAddress=ca@electrosense.org, O=Electrosense, OU=Malachite
        Validity
            Not Before: Jan 14 07:44:51 2015 GMT
            Not After : Jan 13 07:44:51 2019 GMT
        Subject: CN=sensor.electrosense.org, ST=BE, C=CH/emailAddress=sensor@electrosense.org, O=Electrosense, OU=Malachite
        Subject Public Key Info:
            Public Key Algorithm: rsaEncryption
                Public-Key: (1024 bit)
                Modulus:
                    00:97:4e:5b:1b:ec:d1:ca:a1:72:ef:17:32:96:ef:
                    46:69:21:9f:09:84:da:d8:ec:f1:28:71:34:71:68:
                    61:f0:72:28:72:19:2c:63:72:0c:ab:45:3b:76:c7:
                    61:63:75:fe:20:dc:c7:18:40:60:4f:f8:ee:f5:f4:
                    82:ee:8f:47:d8:a0:81:e6:6a:3c:88:1d:96:c5:82:
                    c8:6d:d7:0f:4d:30:66:aa:d6:50:cb:63:91:52:b7:
                    2c:75:2f:e2:dd:4e:60:e6:0f:21:45:7a:c6:d0:21:
                    d0:4f:2f:4b:b3:1c:ce:5f:cf:44:af:ca:c2:d0:f4:
                    cb:27:2e:06:d8:7f:84:6c:b3
                Exponent: 65537 (0x10001)
        X509v3 extensions:
            X509v3 Subject Alternative Name: 
                DNS:alt.electrosense.org
            X509v3 Basic Constraints: 
                CA:FALSE
            Netscape Cert Type: 
                SSL Server
    Signature Algorithm: sha1WithRSAEncryption
         96:bc:0a:4f:98:91:a4:be:ad:ac:13:c3:ea:bd:b0:96:2b:e5:
         29:81:bc:eb:95:cd:e6:97:01:79:41:32:67:92:e8:26:a1:56:
         cb:b6:ba:b1:85:2f:f0:1b:94:2b:9e:e8:98:49:3d:c2:05:e2:
         a8:22:c8:70:16:15:36:78:b1:27:a2:59:48:27:3c:2c:b7:cb:
         2b:75:0b:5e:e2:79:0f:da:ea:0a:78:2e:45:07:9f:35:d7:21:
         28:c2:2f:19:14:b7:e7:17:c4:39:59:82:4f:06:7b:7d:e2:c4:
         3b:cf:d3:f8:dc:f0:d1:e8:58:0e:74:cb:1d:09:49:61:da:a0:
         7b:4f:1e:46:a0:54:e8:7d:fb:49:db:f5:1f:3e:13:f6:a1:04:
         0b:96:e6:db:13:10:eb:f6:93:20:09:ab:1f:25:99:ff:5b:00:
         8b:a7:dc:d9:6d:39:57:8e:f9:6c:2b:5f:81:3b:63:b5:32:6f:
         d4:cb:07:35:02:f8:94:c3:fe:2b:cd:bb:21:37:29:d3:01:65:
         44:be:6e:9d:58:d4:c4:8f:ab:ef:e5:f4:82:9c:00:63:7a:d8:
         04:85:2a:4d:e3:a3:91:bd:8a:32:1e:9d:6e:79:77:2c:d1:fa:
         ca:08:50:96:3e:e1:e7:fd:1c:1f:76:2a:9c:e5:54:2d:07:a3:
         f2:b9:e5:8f
-----BEGIN CERTIFICATE-----
MIIDXzCCAkegAwIBAgIBBTANBgkqhkiG9w0BAQUFADCBljErMCkGA1UEAxMiRWxl
Y3Ryb3NlbnNlIENlcnRpZmljYXRlIEF1dGhvcml0eTELMAkGA1UECBMCQkUxCzAJ
BgNVBAYTAkNIMSIwIAYJKoZIhvcNAQkBFhNjYUBlbGVjdHJvc2Vuc2Uub3JnMRUw
EwYDVQQKEwxFbGVjdHJvc2Vuc2UxEjAQBgNVBAsTCU1hbGFjaGl0ZTAeFw0xNTAx
MTQwNzQ0NTFaFw0xOTAxMTMwNzQ0NTFaMIGPMSAwHgYDVQQDExdzZW5zb3IuZWxl
Y3Ryb3NlbnNlLm9yZzELMAkGA1UECBMCQkUxCzAJBgNVBAYTAkNIMSYwJAYJKoZI
hvcNAQkBFhdzZW5zb3JAZWxlY3Ryb3NlbnNlLm9yZzEVMBMGA1UEChMMRWxlY3Ry
b3NlbnNlMRIwEAYDVQQLEwlNYWxhY2hpdGUwgZ8wDQYJKoZIhvcNAQEBBQADgY0A
MIGJAoGBAJdOWxvs0cqhcu8XMpbvRmkhnwmE2tjs8ShxNHFoYfByKHIZLGNyDKtF
O3bHYWN1/iDcxxhAYE/47vX0gu6PR9iggeZqPIgdlsWCyG3XD00wZqrWUMtjkVK3
LHUv4t1OYOYPIUV6xtAh0E8vS7Mczl/PRK/KwtD0yycuBth/hGyzAgMBAAGjQTA/
MB8GA1UdEQQYMBaCFGFsdC5lbGVjdHJvc2Vuc2Uub3JnMAkGA1UdEwQCMAAwEQYJ
YIZIAYb4QgEBBAQDAgZAMA0GCSqGSIb3DQEBBQUAA4IBAQCWvApPmJGkvq2sE8Pq
vbCWK+Upgbzrlc3mlwF5QTJnkugmoVbLtrqxhS/wG5QrnuiYST3CBeKoIshwFhU2
eLEnollIJzwst8srdQte4nkP2uoKeC5FB5811yEowi8ZFLfnF8Q5WYJPBnt94sQ7
z9P43PDR6FgOdMsdCUlh2qB7Tx5GoFTofftJ2/UfPhP2oQQLlubbExDr9pMgCasf
JZn/WwCLp9zZbTlXjvlsK1+BO2O1Mm/Uywc1AviUw/4rzbshNynTAWVEvm6dWNTE
j6vv5fSCnABjetgEhSpN46ORvYoyHp1ueXcs0frKCFCWPuHn/Rwfdiqc5VQtB6Py
ueWP
-----END CERTIFICATE-----
