Certificate:
    Data:
        Version: 3 (0x2)
        Serial Number: 11 (0xb)
    Signature Algorithm: sha1WithRSAEncryption
        Issuer: CN=Electrosense Certificate Authority, ST=BE, C=CH/emailAddress=ca@electrosense.org, O=Electrosense, OU=Malachite
        Validity
            Not Before: Jan 29 10:13:00 2015 GMT
            Not After : Jan 28 10:13:00 2019 GMT
        Subject: CN=sensor.electrosense.org, ST=BE, C=CH/emailAddress=sensor@electrosense.org, O=Electrosense, OU=Malachite
        Subject Public Key Info:
            Public Key Algorithm: rsaEncryption
                Public-Key: (1024 bit)
                Modulus:
                    00:cb:c5:90:71:77:da:eb:2e:c8:29:c3:67:4a:86:
                    97:68:e5:95:58:cb:51:fa:67:9e:dd:84:c0:1d:20:
                    ad:ae:7b:ec:95:a7:1e:07:fc:6d:e2:f7:95:d3:7a:
                    f4:59:ef:c8:b4:d5:40:67:9d:da:89:52:2b:5f:d4:
                    e3:bb:73:1a:d1:0d:f5:35:bb:3e:78:ad:88:c4:04:
                    47:5f:87:65:58:a3:26:f1:cf:20:d7:da:1c:67:07:
                    0c:46:5c:63:6e:fd:9a:70:69:b4:2c:28:84:f7:8f:
                    d5:9c:7a:38:23:4d:a6:a5:f9:02:50:c1:ac:79:b5:
                    57:2a:26:5a:7e:05:9e:a7:e1
                Exponent: 65537 (0x10001)
        X509v3 extensions:
            X509v3 Subject Alternative Name: 
                DNS:alt.electrosense.org
            X509v3 Basic Constraints: 
                CA:FALSE
            Netscape Cert Type: 
                SSL Client, SSL Server
    Signature Algorithm: sha1WithRSAEncryption
         22:66:9b:d4:d5:72:ed:d0:dc:d4:7d:c0:56:75:e4:21:2a:e2:
         76:fd:6d:3a:9e:cd:9c:e6:8c:e7:17:6e:89:76:9f:bd:cd:28:
         13:6f:45:3a:9d:a8:45:11:0a:80:f2:b0:3d:99:a9:3d:cb:b2:
         28:3c:a1:8a:7a:9b:32:26:89:3f:69:a5:0a:a6:03:8b:93:ba:
         41:b7:d3:af:13:33:e0:39:6d:75:f3:07:d0:af:3d:7b:64:fe:
         53:50:4c:d5:76:bf:cf:66:56:11:6e:df:7b:22:ac:bd:4d:79:
         62:d3:65:81:cb:47:24:7b:99:c7:48:02:92:16:ea:8e:dc:2f:
         96:49:96:d2:5b:4a:e6:e5:be:cc:b6:e3:c6:9a:02:fd:44:f2:
         af:1a:1d:20:e1:87:c6:5c:fd:1a:15:1b:f9:15:c7:3d:44:81:
         a3:a5:24:a3:d5:1e:26:6a:d8:37:f5:06:86:b2:a7:41:4b:c2:
         da:08:8e:24:a9:04:65:21:26:cf:0c:73:f0:4d:3d:3e:28:3c:
         55:11:2a:84:74:79:26:5f:6c:b5:51:5e:f7:fe:ec:6b:f7:68:
         3f:2e:9c:69:fa:af:77:53:85:18:7e:6e:33:fa:67:3f:b4:a8:
         ff:85:99:49:50:f5:01:85:80:2a:4e:2b:7b:e7:a3:62:b4:04:
         d6:90:54:22
-----BEGIN CERTIFICATE-----
MIIDXzCCAkegAwIBAgIBCzANBgkqhkiG9w0BAQUFADCBljErMCkGA1UEAxMiRWxl
Y3Ryb3NlbnNlIENlcnRpZmljYXRlIEF1dGhvcml0eTELMAkGA1UECBMCQkUxCzAJ
BgNVBAYTAkNIMSIwIAYJKoZIhvcNAQkBFhNjYUBlbGVjdHJvc2Vuc2Uub3JnMRUw
EwYDVQQKEwxFbGVjdHJvc2Vuc2UxEjAQBgNVBAsTCU1hbGFjaGl0ZTAeFw0xNTAx
MjkxMDEzMDBaFw0xOTAxMjgxMDEzMDBaMIGPMSAwHgYDVQQDExdzZW5zb3IuZWxl
Y3Ryb3NlbnNlLm9yZzELMAkGA1UECBMCQkUxCzAJBgNVBAYTAkNIMSYwJAYJKoZI
hvcNAQkBFhdzZW5zb3JAZWxlY3Ryb3NlbnNlLm9yZzEVMBMGA1UEChMMRWxlY3Ry
b3NlbnNlMRIwEAYDVQQLEwlNYWxhY2hpdGUwgZ8wDQYJKoZIhvcNAQEBBQADgY0A
MIGJAoGBAMvFkHF32usuyCnDZ0qGl2jllVjLUfpnnt2EwB0gra577JWnHgf8beL3
ldN69FnvyLTVQGed2olSK1/U47tzGtEN9TW7PnitiMQER1+HZVijJvHPINfaHGcH
DEZcY279mnBptCwohPeP1Zx6OCNNpqX5AlDBrHm1VyomWn4FnqfhAgMBAAGjQTA/
MB8GA1UdEQQYMBaCFGFsdC5lbGVjdHJvc2Vuc2Uub3JnMAkGA1UdEwQCMAAwEQYJ
YIZIAYb4QgEBBAQDAgbAMA0GCSqGSIb3DQEBBQUAA4IBAQAiZpvU1XLt0NzUfcBW
deQhKuJ2/W06ns2c5oznF26Jdp+9zSgTb0U6nahFEQqA8rA9mak9y7IoPKGKepsy
Jok/aaUKpgOLk7pBt9OvEzPgOW118wfQrz17ZP5TUEzVdr/PZlYRbt97Iqy9TXli
02WBy0cke5nHSAKSFuqO3C+WSZbSW0rm5b7MtuPGmgL9RPKvGh0g4YfGXP0aFRv5
Fcc9RIGjpSSj1R4matg39QaGsqdBS8LaCI4kqQRlISbPDHPwTT0+KDxVESqEdHkm
X2y1UV73/uxr92g/Lpxp+q93U4UYfm4z+mc/tKj/hZlJUPUBhYAqTit756NitATW
kFQi
-----END CERTIFICATE-----
