Certificate:
    Data:
        Version: 3 (0x2)
        Serial Number: 3 (0x3)
    Signature Algorithm: sha1WithRSAEncryption
        Issuer: CN=Electrosense Certificate Authority, ST=BE, C=CH/emailAddress=ca@electrosense.org, O=Electrosense, OU=Malachite
        Validity
            Not Before: Jan 14 07:43:59 2015 GMT
            Not After : Jan 13 07:43:59 2019 GMT
        Subject: CN=collector.electrosense.org, ST=BE, C=CH/emailAddress=collector@electrosense.org, O=Electrosense, OU=Malachite
        Subject Public Key Info:
            Public Key Algorithm: rsaEncryption
                Public-Key: (1024 bit)
                Modulus:
                    00:cd:4e:b3:f5:df:8b:eb:88:fb:39:df:2a:48:c7:
                    ae:ac:90:a1:99:c1:19:19:17:ad:4e:32:c6:fc:5b:
                    d8:ee:bf:01:89:96:bb:e2:e0:27:a9:e4:9a:3f:90:
                    b9:74:e9:fc:7c:b5:2f:a8:86:d7:27:13:2e:5a:d3:
                    48:50:eb:98:9f:cd:b0:41:f6:9d:59:51:46:44:61:
                    e7:dd:c0:98:fc:05:d3:69:83:4b:96:5d:b0:be:e0:
                    32:17:a0:d0:c4:87:4b:25:60:f8:d6:aa:08:69:66:
                    18:5a:cc:9c:1c:97:18:2f:07:95:53:27:4f:cb:f6:
                    f0:0f:76:bc:99:4e:62:6d:53
                Exponent: 65537 (0x10001)
        X509v3 extensions:
            X509v3 Subject Alternative Name: 
                DNS:alt.electrosense.org
            X509v3 Basic Constraints: 
                CA:FALSE
            Netscape Cert Type: 
                SSL Server
    Signature Algorithm: sha1WithRSAEncryption
         61:74:51:ab:80:35:c2:6b:00:f8:2e:9d:cf:34:56:f1:c6:0c:
         c2:ea:59:f7:79:1a:df:9c:d7:28:ce:a7:ea:ce:80:37:fb:8b:
         ed:32:bc:34:38:02:a7:1d:e1:04:af:3f:bc:11:b9:02:d8:27:
         df:22:33:97:0d:3a:e3:15:e8:67:7a:06:67:07:58:a3:1a:90:
         b4:13:19:5d:39:93:44:49:8e:76:c1:48:be:b0:e0:65:3e:fa:
         b2:b5:bc:42:30:ae:c5:b7:ab:69:98:13:1f:84:3c:80:1d:07:
         07:f8:ec:f2:08:01:95:55:d0:dd:e3:93:1a:00:25:6b:59:27:
         a6:bc:d6:01:ee:4e:7c:9c:b5:19:9f:7b:dc:51:c2:7a:f1:5b:
         cc:84:86:c4:35:3a:5d:f5:09:00:3f:51:ff:2b:2b:44:cd:08:
         a7:84:61:62:dc:47:78:96:14:79:8f:1b:14:de:fd:e9:c5:52:
         11:99:98:d5:41:46:77:12:db:30:b3:c8:32:e2:b8:f1:b7:32:
         09:57:e3:2b:db:fe:ac:cb:eb:75:f7:ea:f3:65:98:8b:1b:ca:
         5a:2a:fc:46:1b:73:3a:97:ff:e0:43:a0:1a:f2:17:0e:ad:f0:
         3c:32:92:03:7f:50:eb:52:9b:b4:a1:50:89:ed:6f:45:e7:85:
         7e:d5:08:25
-----BEGIN CERTIFICATE-----
MIIDZTCCAk2gAwIBAgIBAzANBgkqhkiG9w0BAQUFADCBljErMCkGA1UEAxMiRWxl
Y3Ryb3NlbnNlIENlcnRpZmljYXRlIEF1dGhvcml0eTELMAkGA1UECBMCQkUxCzAJ
BgNVBAYTAkNIMSIwIAYJKoZIhvcNAQkBFhNjYUBlbGVjdHJvc2Vuc2Uub3JnMRUw
EwYDVQQKEwxFbGVjdHJvc2Vuc2UxEjAQBgNVBAsTCU1hbGFjaGl0ZTAeFw0xNTAx
MTQwNzQzNTlaFw0xOTAxMTMwNzQzNTlaMIGVMSMwIQYDVQQDExpjb2xsZWN0b3Iu
ZWxlY3Ryb3NlbnNlLm9yZzELMAkGA1UECBMCQkUxCzAJBgNVBAYTAkNIMSkwJwYJ
KoZIhvcNAQkBFhpjb2xsZWN0b3JAZWxlY3Ryb3NlbnNlLm9yZzEVMBMGA1UEChMM
RWxlY3Ryb3NlbnNlMRIwEAYDVQQLEwlNYWxhY2hpdGUwgZ8wDQYJKoZIhvcNAQEB
BQADgY0AMIGJAoGBAM1Os/Xfi+uI+znfKkjHrqyQoZnBGRkXrU4yxvxb2O6/AYmW
u+LgJ6nkmj+QuXTp/Hy1L6iG1ycTLlrTSFDrmJ/NsEH2nVlRRkRh593AmPwF02mD
S5ZdsL7gMheg0MSHSyVg+NaqCGlmGFrMnByXGC8HlVMnT8v28A92vJlOYm1TAgMB
AAGjQTA/MB8GA1UdEQQYMBaCFGFsdC5lbGVjdHJvc2Vuc2Uub3JnMAkGA1UdEwQC
MAAwEQYJYIZIAYb4QgEBBAQDAgZAMA0GCSqGSIb3DQEBBQUAA4IBAQBhdFGrgDXC
awD4Lp3PNFbxxgzC6ln3eRrfnNcozqfqzoA3+4vtMrw0OAKnHeEErz+8EbkC2Cff
IjOXDTrjFehnegZnB1ijGpC0ExldOZNESY52wUi+sOBlPvqytbxCMK7Ft6tpmBMf
hDyAHQcH+OzyCAGVVdDd45MaACVrWSemvNYB7k58nLUZn3vcUcJ68VvMhIbENTpd
9QkAP1H/KytEzQinhGFi3Ed4lhR5jxsU3v3pxVIRmZjVQUZ3Etsws8gy4rjxtzIJ
V+Mr2/6sy+t19+rzZZiLG8paKvxGG3M6l//gQ6Aa8hcOrfA8MpIDf1DrUpu0oVCJ
7W9F54V+1Qgl
-----END CERTIFICATE-----
